; Function Attrs: mustprogress nounwind uwtable
define dso_local { ptr, i64 } @_ZN4llvm3PPC25getNormalizedPPCTargetCPUERKNS_6TripleENS_9StringRefE(ptr noundef nonnull readonly align 8 captures(none) dereferenceable(56) %0, ptr %1, i64 %2) local_unnamed_addr #2 {
  switch i64 %2, label %_ZN4llvmeqENS_9StringRefES0_.exit.thread [
    i64 0, label %_ZN4llvmneENS_9StringRefES0_.exit14.thread35
    i64 6, label %_ZN4llvmeqENS_9StringRefES0_.exit
  ]

_ZN4llvmeqENS_9StringRefES0_.exit:                ; preds = %3
  %bcmp.i = tail call i32 @bcmp(ptr noundef nonnull dereferenceable(6) %1, ptr noundef nonnull dereferenceable(6) @.str.52, i64 6)
  %4 = icmp eq i32 %bcmp.i, 0
  br i1 %4, label %5, label %_ZN4llvmeqENS_9StringRefES0_.exit.thread

5:                                                ; preds = %_ZN4llvmeqENS_9StringRefES0_.exit
  %6 = tail call { ptr, i64 } @_ZN4llvm3sys14getHostCPUNameEv() #6
  %7 = extractvalue { ptr, i64 } %6, 0
  %8 = extractvalue { ptr, i64 } %6, 1
  switch i64 %8, label %_ZN4llvmneENS_9StringRefES0_.exit.thread [
    i64 0, label %_ZN4llvmeqENS_9StringRefES0_.exit.thread
    i64 7, label %_ZN4llvmneENS_9StringRefES0_.exit
  ]

_ZN4llvmneENS_9StringRefES0_.exit:                ; preds = %5
  %bcmp.i.i = tail call i32 @bcmp(ptr noundef nonnull dereferenceable(7) %7, ptr noundef nonnull dereferenceable(7) @.str.2, i64 7)
  %.not = icmp eq i32 %bcmp.i.i, 0
  br i1 %.not, label %_ZN4llvmeqENS_9StringRefES0_.exit.thread, label %_ZN4llvmneENS_9StringRefES0_.exit.thread

_ZN4llvmeqENS_9StringRefES0_.exit.thread:         ; preds = %5, %3, %_ZN4llvmneENS_9StringRefES0_.exit, %_ZN4llvmeqENS_9StringRefES0_.exit
  %9 = tail call { ptr, i64 } @_ZN4llvm3PPC16normalizeCPUNameENS_9StringRefE(ptr %1, i64 %2)
  %10 = extractvalue { ptr, i64 } %9, 0
  %11 = extractvalue { ptr, i64 } %9, 1
  switch i64 %11, label %_ZN4llvmneENS_9StringRefES0_.exit.thread [
    i64 7, label %_ZN4llvmneENS_9StringRefES0_.exit14
    i64 6, label %_ZN4llvmneENS_9StringRefES0_.exit18
  ]

_ZN4llvmneENS_9StringRefES0_.exit14:              ; preds = %_ZN4llvmeqENS_9StringRefES0_.exit.thread
  %bcmp.i.i13 = tail call i32 @bcmp(ptr noundef nonnull dereferenceable(7) %10, ptr noundef nonnull dereferenceable(7) @.str.2, i64 7)
  %.not40 = icmp eq i32 %bcmp.i.i13, 0
  br i1 %.not40, label %_ZN4llvmneENS_9StringRefES0_.exit14.thread35, label %_ZN4llvmneENS_9StringRefES0_.exit.thread

_ZN4llvmneENS_9StringRefES0_.exit18:              ; preds = %_ZN4llvmeqENS_9StringRefES0_.exit.thread
  %bcmp.i.i17 = tail call i32 @bcmp(ptr noundef nonnull dereferenceable(6) %10, ptr noundef nonnull dereferenceable(6) @.str.52, i64 6)
  %.not41 = icmp eq i32 %bcmp.i.i17, 0
  br i1 %.not41, label %_ZN4llvmneENS_9StringRefES0_.exit14.thread35, label %_ZN4llvmneENS_9StringRefES0_.exit.thread

_ZN4llvmneENS_9StringRefES0_.exit14.thread35:     ; preds = %3, %_ZN4llvmneENS_9StringRefES0_.exit14, %_ZN4llvmneENS_9StringRefES0_.exit18
  %12 = getelementptr inbounds nuw i8, ptr %0, i64 44
  %13 = load i32, ptr %12, align 4
  %14 = icmp eq i32 %13, 19
  br i1 %14, label %_ZN4llvmneENS_9StringRefES0_.exit.thread, label %15

15:                                               ; preds = %_ZN4llvmneENS_9StringRefES0_.exit14.thread35
  %16 = getelementptr inbounds nuw i8, ptr %0, i64 32
  %17 = load i32, ptr %16, align 8
  switch i32 %17, label %19 [
    i32 24, label %_ZN4llvmneENS_9StringRefES0_.exit.thread
    i32 23, label %18
  ]

18:                                               ; preds = %15
  br label %_ZN4llvmneENS_9StringRefES0_.exit.thread

19:                                               ; preds = %15
  br label %_ZN4llvmneENS_9StringRefES0_.exit.thread

_ZN4llvmneENS_9StringRefES0_.exit.thread:         ; preds = %_ZN4llvmneENS_9StringRefES0_.exit14, %15, %_ZN4llvmneENS_9StringRefES0_.exit14.thread35, %_ZN4llvmeqENS_9StringRefES0_.exit.thread, %5, %_ZN4llvmneENS_9StringRefES0_.exit18, %_ZN4llvmneENS_9StringRefES0_.exit, %19, %18
  %.sroa.028.0 = phi ptr [ @.str.49, %18 ], [ @.str.47, %19 ], [ %10, %_ZN4llvmneENS_9StringRefES0_.exit18 ], [ %7, %_ZN4llvmneENS_9StringRefES0_.exit ], [ %7, %5 ], [ %10, %_ZN4llvmeqENS_9StringRefES0_.exit.thread ], [ @.str.36, %_ZN4llvmneENS_9StringRefES0_.exit14.thread35 ], [ @.str.51, %15 ], [ %10, %_ZN4llvmneENS_9StringRefES0_.exit14 ]
  %.sroa.9.0 = phi i64 [ 5, %18 ], [ 3, %19 ], [ 6, %_ZN4llvmneENS_9StringRefES0_.exit18 ], [ 7, %_ZN4llvmneENS_9StringRefES0_.exit ], [ %8, %5 ], [ %11, %_ZN4llvmeqENS_9StringRefES0_.exit.thread ], [ 4, %_ZN4llvmneENS_9StringRefES0_.exit14.thread35 ], [ 7, %15 ], [ 7, %_ZN4llvmneENS_9StringRefES0_.exit14 ]
  %.fca.0.insert = insertvalue { ptr, i64 } poison, ptr %.sroa.028.0, 0
  %.fca.1.insert = insertvalue { ptr, i64 } %.fca.0.insert, i64 %.sroa.9.0, 1
  ret { ptr, i64 } %.fca.1.insert
}